target datalayout = "e-m:e-p270:32:32-p271:32:32-p272:64:64-i64:64-i128:128-f80:128-n8:16:32:64-S128"
target triple = "x86_64-pc-linux-gnu"

@.str = private unnamed_addr constant [22 x i8] c"burst_buffer_common.c\00", align 1
@.str.42 = private unnamed_addr constant [2 x i8] c",\00", align 1
@__func__._parse_users = private unnamed_addr constant [13 x i8] c"_parse_users\00", align 1
@.str.115 = private unnamed_addr constant [30 x i8] c"%s: ignoring invalid user: %s\00", align 1

; Function Attrs: nounwind uwtable
define internal ptr @_parse_users(ptr noundef %0) #0 {
  %2 = alloca ptr, align 8
  %3 = alloca ptr, align 8
  %4 = alloca ptr, align 8
  %5 = alloca ptr, align 8
  %6 = alloca ptr, align 8
  %7 = alloca i32, align 4
  %8 = alloca i32, align 4
  %9 = alloca ptr, align 8
  %10 = alloca i32, align 4
  store ptr %0, ptr %3, align 8
  call void @llvm.lifetime.start.p0(i64 8, ptr %4) #9
  call void @llvm.lifetime.start.p0(i64 8, ptr %5) #9
  call void @llvm.lifetime.start.p0(i64 8, ptr %6) #9
  store ptr null, ptr %6, align 8
  call void @llvm.lifetime.start.p0(i64 4, ptr %7) #9
  store i32 0, ptr %7, align 4
  call void @llvm.lifetime.start.p0(i64 4, ptr %8) #9
  call void @llvm.lifetime.start.p0(i64 8, ptr %9) #9
  store ptr null, ptr %9, align 8
  %11 = load ptr, ptr %3, align 8
  %12 = icmp ne ptr %11, null
  br i1 %12, label %15, label %13

13:                                               ; preds = %1
  %14 = load ptr, ptr %9, align 8
  store ptr %14, ptr %2, align 8
  store i32 1, ptr %10, align 4
  br label %61

15:                                               ; preds = %1
  %16 = load ptr, ptr %3, align 8
  %17 = call ptr @xstrdup(ptr noundef %16)
  store ptr %17, ptr %4, align 8
  store i32 1, ptr %8, align 4
  %18 = load i32, ptr %8, align 4
  %19 = sext i32 %18 to i64
  %20 = call ptr @slurm_xcalloc(i64 noundef %19, i64 noundef 4, i1 noundef zeroext true, i1 noundef zeroext false, ptr noundef @.str, i32 noundef 98, ptr noundef @__func__._parse_users)
  store ptr %20, ptr %9, align 8
  %21 = load ptr, ptr %4, align 8
  %22 = call ptr @strtok_r(ptr noundef %21, ptr noundef @.str.42, ptr noundef %6) #9
  store ptr %22, ptr %5, align 8
  br label %23

23:                                               ; preds = %57, %15
  %24 = load ptr, ptr %5, align 8
  %25 = icmp ne ptr %24, null
  br i1 %25, label %26, label %59

26:                                               ; preds = %23
  %27 = load ptr, ptr %5, align 8
  %28 = load ptr, ptr %9, align 8
  %29 = load i32, ptr %7, align 4
  %30 = sext i32 %29 to i64
  %31 = getelementptr inbounds i32, ptr %28, i64 %30
  %32 = call i32 @uid_from_string(ptr noundef %27, ptr noundef %31)
  %33 = icmp eq i32 %32, -1
  br i1 %33, label %41, label %34

34:                                               ; preds = %26
  %35 = load ptr, ptr %9, align 8
  %36 = load i32, ptr %7, align 4
  %37 = sext i32 %36 to i64
  %38 = getelementptr inbounds i32, ptr %35, i64 %37
  %39 = load i32, ptr %38, align 4
  %40 = icmp eq i32 %39, 0
  br i1 %40, label %41, label %44

41:                                               ; preds = %34, %26
  %42 = load ptr, ptr %5, align 8
  %43 = call i32 (ptr, ...) @error(ptr noundef @.str.115, ptr noundef @__func__._parse_users, ptr noundef %42)
  br label %57

44:                                               ; preds = %34
  %45 = load i32, ptr %7, align 4
  %46 = add nsw i32 %45, 1
  store i32 %46, ptr %7, align 4
  %47 = load i32, ptr %8, align 4
  %48 = icmp sge i32 %46, %47
  br i1 %48, label %49, label %56

49:                                               ; preds = %44
  %50 = load i32, ptr %8, align 4
  %51 = mul nsw i32 %50, 2
  store i32 %51, ptr %8, align 4
  %52 = load i32, ptr %8, align 4
  %53 = sext i32 %52 to i64
  %54 = mul i64 4, %53
  %55 = call ptr @slurm_xrecalloc(ptr noundef %9, i64 noundef 1, i64 noundef %54, i1 noundef zeroext true, i1 noundef zeroext false, ptr noundef @.str, i32 noundef 108, ptr noundef @__func__._parse_users)
  store ptr %55, ptr %9, align 8
  br label %56

56:                                               ; preds = %49, %44
  br label %57

57:                                               ; preds = %56, %41
  %58 = call ptr @strtok_r(ptr noundef null, ptr noundef @.str.42, ptr noundef %6) #9
  store ptr %58, ptr %5, align 8
  br label %23, !llvm.loop !30

59:                                               ; preds = %23
  call void @slurm_xfree(ptr noundef %4)
  %60 = load ptr, ptr %9, align 8
  store ptr %60, ptr %2, align 8
  store i32 1, ptr %10, align 4
  br label %61

61:                                               ; preds = %59, %13
  call void @llvm.lifetime.end.p0(i64 8, ptr %9) #9
  call void @llvm.lifetime.end.p0(i64 4, ptr %8) #9
  call void @llvm.lifetime.end.p0(i64 4, ptr %7) #9
  call void @llvm.lifetime.end.p0(i64 8, ptr %6) #9
  call void @llvm.lifetime.end.p0(i64 8, ptr %5) #9
  call void @llvm.lifetime.end.p0(i64 8, ptr %4) #9
  %62 = load ptr, ptr %2, align 8
  ret ptr %62
}