; Function Attrs: nounwind uwtable
define internal fastcc ptr @_parse_users(ptr noundef %0) unnamed_addr #0 {
  %2 = alloca ptr, align 8
  %3 = alloca ptr, align 8
  %4 = alloca ptr, align 8
  call void @llvm.lifetime.start.p0(i64 8, ptr nonnull %2) #17
  call void @llvm.lifetime.start.p0(i64 8, ptr nonnull %3) #17
  store ptr null, ptr %3, align 8
  call void @llvm.lifetime.start.p0(i64 8, ptr nonnull %4) #17
  %.not = icmp eq ptr %0, null
  br i1 %.not, label %31, label %5

5:                                                ; preds = %1
  %6 = tail call ptr @xstrdup(ptr noundef nonnull %0) #17
  store ptr %6, ptr %2, align 8
  %7 = tail call ptr @slurm_xcalloc(i64 noundef 1, i64 noundef 4, i1 noundef zeroext true, i1 noundef zeroext false, ptr noundef nonnull @.str, i32 noundef 98, ptr noundef nonnull @__func__._parse_users) #17
  store ptr %7, ptr %4, align 8
  %8 = call ptr @strtok_r(ptr noundef %6, ptr noundef nonnull @.str.42, ptr noundef nonnull %3) #17
  %.not1921 = icmp eq ptr %8, null
  br i1 %.not1921, label %._crit_edge, label %.lr.ph

.lr.ph:                                           ; preds = %5, %28
  %.024 = phi i32 [ %.1, %28 ], [ 1, %5 ]
  %.01223 = phi i32 [ %.113, %28 ], [ 0, %5 ]
  %.01422 = phi ptr [ %29, %28 ], [ %8, %5 ]
  %9 = load ptr, ptr %4, align 8
  %10 = sext i32 %.01223 to i64
  %11 = getelementptr inbounds i32, ptr %9, i64 %10
  %12 = call i32 @uid_from_string(ptr noundef nonnull %.01422, ptr noundef %11) #17
  %13 = icmp eq i32 %12, -1
  br i1 %13, label %19, label %14

14:                                               ; preds = %.lr.ph
  %15 = load ptr, ptr %4, align 8
  %16 = getelementptr inbounds i32, ptr %15, i64 %10
  %17 = load i32, ptr %16, align 4
  %18 = icmp eq i32 %17, 0
  br i1 %18, label %19, label %21

19:                                               ; preds = %14, %.lr.ph
  %20 = call i32 (ptr, ...) @error(ptr noundef nonnull @.str.115, ptr noundef nonnull @__func__._parse_users, ptr noundef nonnull %.01422) #17
  br label %28

21:                                               ; preds = %14
  %22 = add nsw i32 %.01223, 1
  %.not20 = icmp slt i32 %22, %.024
  br i1 %.not20, label %28, label %23

23:                                               ; preds = %21
  %24 = shl nsw i32 %.024, 1
  %25 = sext i32 %24 to i64
  %26 = shl nsw i64 %25, 2
  %27 = call ptr @slurm_xrecalloc(ptr noundef nonnull %4, i64 noundef 1, i64 noundef %26, i1 noundef zeroext true, i1 noundef zeroext false, ptr noundef nonnull @.str, i32 noundef 108, ptr noundef nonnull @__func__._parse_users) #17
  store ptr %27, ptr %4, align 8
  br label %28

28:                                               ; preds = %21, %23, %19
  %.113 = phi i32 [ %.01223, %19 ], [ %22, %23 ], [ %22, %21 ]
  %.1 = phi i32 [ %.024, %19 ], [ %24, %23 ], [ %.024, %21 ]
  %29 = call ptr @strtok_r(ptr noundef null, ptr noundef nonnull @.str.42, ptr noundef nonnull %3) #17
  %.not19 = icmp eq ptr %29, null
  br i1 %.not19, label %._crit_edge, label %.lr.ph, !llvm.loop !31

._crit_edge:                                      ; preds = %28, %5
  call void @slurm_xfree(ptr noundef nonnull %2) #17
  %30 = load ptr, ptr %4, align 8
  br label %31

31:                                               ; preds = %1, %._crit_edge
  %.015 = phi ptr [ %30, %._crit_edge ], [ null, %1 ]
  call void @llvm.lifetime.end.p0(i64 8, ptr nonnull %4) #17
  call void @llvm.lifetime.end.p0(i64 8, ptr nonnull %3) #17
  call void @llvm.lifetime.end.p0(i64 8, ptr nonnull %2) #17
  ret ptr %.015
}